target datalayout = "e-m:e-p270:32:32-p271:32:32-p272:64:64-i64:64-i128:128-f80:128-n8:16:32:64-S128"
target triple = "x86_64-pc-linux-gnu"

%struct.LogicalDecodingContext = type { ptr, ptr, ptr, ptr, ptr, i8, %struct.OutputPluginCallbacks, %struct.OutputPluginOptions, ptr, ptr, ptr, ptr, ptr, ptr, ptr, i8, i8, i8, i8, i8, i64, i32, i8, i8 }
%struct.OutputPluginCallbacks = type { ptr, ptr, ptr, ptr, ptr, ptr, ptr, ptr, ptr, ptr, ptr, ptr, ptr, ptr, ptr, ptr, ptr, ptr, ptr, ptr, ptr }
%struct.OutputPluginOptions = type { i32, i8 }
%struct.ReorderBuffer = type { ptr, %struct.dlist_head, %struct.dlist_head, %struct.dclist_head, i32, ptr, ptr, ptr, ptr, ptr, ptr, ptr, ptr, ptr, ptr, ptr, ptr, ptr, ptr, ptr, ptr, ptr, ptr, ptr, ptr, i8, ptr, ptr, ptr, ptr, i64, ptr, i64, i64, ptr, i64, i64, i64, i64, i64, i64, i64, i64 }
%struct.dlist_head = type { %struct.dlist_node }
%struct.dlist_node = type { ptr, ptr }
%struct.dclist_head = type { %struct.dlist_head, i32 }
%struct.LogicalErrorCallbackState = type { ptr, ptr, i64 }
%struct.ErrorContextCallback = type { ptr, ptr, ptr }
%struct.ReorderBufferTXN = type { i32, i32, i32, ptr, i64, i64, i64, ptr, i64, i16, i64, %union.anon, ptr, i64, %struct.dlist_node, ptr, i32, i64, i64, %struct.dlist_head, %struct.dlist_head, i64, ptr, ptr, %struct.dlist_head, i32, i32, ptr, %struct.dlist_node, %struct.dlist_node, %struct.pairingheap_node, i64, i64, ptr }
%union.anon = type { i64 }
%struct.pairingheap_node = type { ptr, ptr, ptr }

@error_context_stack = external global ptr, align 8
@.str.37 = private unnamed_addr constant [6 x i8] c"begin\00", align 1

; Function Attrs: nounwind uwtable
define internal void @begin_cb_wrapper(ptr noundef %0, ptr noundef %1) #0 {
  %3 = alloca ptr, align 8
  %4 = alloca ptr, align 8
  %5 = alloca ptr, align 8
  %6 = alloca %struct.LogicalErrorCallbackState, align 8
  %7 = alloca %struct.ErrorContextCallback, align 8
  store ptr %0, ptr %3, align 8
  store ptr %1, ptr %4, align 8
  call void @llvm.lifetime.start.p0(i64 8, ptr %5) #10
  %8 = load ptr, ptr %3, align 8
  %9 = getelementptr inbounds nuw %struct.ReorderBuffer, ptr %8, i32 0, i32 24
  %10 = load ptr, ptr %9, align 8
  store ptr %10, ptr %5, align 8
  call void @llvm.lifetime.start.p0(i64 24, ptr %6) #10
  call void @llvm.lifetime.start.p0(i64 24, ptr %7) #10
  %11 = load ptr, ptr %5, align 8
  %12 = getelementptr inbounds nuw %struct.LogicalErrorCallbackState, ptr %6, i32 0, i32 0
  store ptr %11, ptr %12, align 8
  %13 = getelementptr inbounds nuw %struct.LogicalErrorCallbackState, ptr %6, i32 0, i32 1
  store ptr @.str.37, ptr %13, align 8
  %14 = load ptr, ptr %4, align 8
  %15 = getelementptr inbounds nuw %struct.ReorderBufferTXN, ptr %14, i32 0, i32 4
  %16 = load i64, ptr %15, align 8
  %17 = getelementptr inbounds nuw %struct.LogicalErrorCallbackState, ptr %6, i32 0, i32 2
  store i64 %16, ptr %17, align 8
  %18 = getelementptr inbounds nuw %struct.ErrorContextCallback, ptr %7, i32 0, i32 1
  store ptr @output_plugin_error_callback, ptr %18, align 8
  %19 = getelementptr inbounds nuw %struct.ErrorContextCallback, ptr %7, i32 0, i32 2
  store ptr %6, ptr %19, align 8
  %20 = load ptr, ptr @error_context_stack, align 8
  %21 = getelementptr inbounds nuw %struct.ErrorContextCallback, ptr %7, i32 0, i32 0
  store ptr %20, ptr %21, align 8
  store ptr %7, ptr @error_context_stack, align 8
  %22 = load ptr, ptr %5, align 8
  %23 = getelementptr inbounds nuw %struct.LogicalDecodingContext, ptr %22, i32 0, i32 18
  store i8 1, ptr %23, align 1
  %24 = load ptr, ptr %4, align 8
  %25 = getelementptr inbounds nuw %struct.ReorderBufferTXN, ptr %24, i32 0, i32 1
  %26 = load i32, ptr %25, align 4
  %27 = load ptr, ptr %5, align 8
  %28 = getelementptr inbounds nuw %struct.LogicalDecodingContext, ptr %27, i32 0, i32 21
  store i32 %26, ptr %28, align 8
  %29 = load ptr, ptr %4, align 8
  %30 = getelementptr inbounds nuw %struct.ReorderBufferTXN, ptr %29, i32 0, i32 4
  %31 = load i64, ptr %30, align 8
  %32 = load ptr, ptr %5, align 8
  %33 = getelementptr inbounds nuw %struct.LogicalDecodingContext, ptr %32, i32 0, i32 20
  store i64 %31, ptr %33, align 8
  %34 = load ptr, ptr %5, align 8
  %35 = getelementptr inbounds nuw %struct.LogicalDecodingContext, ptr %34, i32 0, i32 22
  store i8 0, ptr %35, align 4
  %36 = load ptr, ptr %5, align 8
  %37 = getelementptr inbounds nuw %struct.LogicalDecodingContext, ptr %36, i32 0, i32 6
  %38 = getelementptr inbounds nuw %struct.OutputPluginCallbacks, ptr %37, i32 0, i32 1
  %39 = load ptr, ptr %38, align 8
  %40 = load ptr, ptr %5, align 8
  %41 = load ptr, ptr %4, align 8
  call void %39(ptr noundef %40, ptr noundef %41)
  %42 = getelementptr inbounds nuw %struct.ErrorContextCallback, ptr %7, i32 0, i32 0
  %43 = load ptr, ptr %42, align 8
  store ptr %43, ptr @error_context_stack, align 8
  call void @llvm.lifetime.end.p0(i64 24, ptr %7) #10
  call void @llvm.lifetime.end.p0(i64 24, ptr %6) #10
  call void @llvm.lifetime.end.p0(i64 8, ptr %5) #10
  ret void
}