; Function Attrs: nounwind uwtable
define internal void @begin_cb_wrapper(ptr noundef readonly captures(none) %0, ptr noundef %1) #0 {
  %3 = alloca %struct.LogicalErrorCallbackState, align 8
  %4 = alloca %struct.ErrorContextCallback, align 8
  %5 = getelementptr inbounds nuw i8, ptr %0, i64 224
  %6 = load ptr, ptr %5, align 8
  call void @llvm.lifetime.start.p0(i64 24, ptr nonnull %3) #10
  call void @llvm.lifetime.start.p0(i64 24, ptr nonnull %4) #10
  store ptr %6, ptr %3, align 8
  %7 = getelementptr inbounds nuw i8, ptr %3, i64 8
  store ptr @.str.37, ptr %7, align 8
  %8 = getelementptr inbounds nuw i8, ptr %1, i64 24
  %9 = load i64, ptr %8, align 8
  %10 = getelementptr inbounds nuw i8, ptr %3, i64 16
  store i64 %9, ptr %10, align 8
  %11 = getelementptr inbounds nuw i8, ptr %4, i64 8
  store ptr @output_plugin_error_callback, ptr %11, align 8
  %12 = getelementptr inbounds nuw i8, ptr %4, i64 16
  store ptr %3, ptr %12, align 8
  %13 = load ptr, ptr @error_context_stack, align 8
  store ptr %13, ptr %4, align 8
  store ptr %4, ptr @error_context_stack, align 8
  %14 = getelementptr inbounds nuw i8, ptr %6, i64 283
  store i8 1, ptr %14, align 1
  %15 = getelementptr inbounds nuw i8, ptr %1, i64 4
  %16 = load i32, ptr %15, align 4
  %17 = getelementptr inbounds nuw i8, ptr %6, i64 296
  store i32 %16, ptr %17, align 8
  %18 = load i64, ptr %8, align 8
  %19 = getelementptr inbounds nuw i8, ptr %6, i64 288
  store i64 %18, ptr %19, align 8
  %20 = getelementptr inbounds nuw i8, ptr %6, i64 300
  store i8 0, ptr %20, align 4
  %21 = getelementptr inbounds nuw i8, ptr %6, i64 56
  %22 = load ptr, ptr %21, align 8
  call void %22(ptr noundef %6, ptr noundef %1) #10
  %23 = load ptr, ptr %4, align 8
  store ptr %23, ptr @error_context_stack, align 8
  call void @llvm.lifetime.end.p0(i64 24, ptr nonnull %4) #10
  call void @llvm.lifetime.end.p0(i64 24, ptr nonnull %3) #10
  ret void
}